target datalayout = "e-m:e-p270:32:32-p271:32:32-p272:64:64-i64:64-i128:128-f80:128-n8:16:32:64-S128"
target triple = "x86_64-pc-linux-gnu"

%"class.OpenColorIO_v2_5dev::GradingToneOpData" = type <{ %"class.OpenColorIO_v2_5dev::OpData", i32, [4 x i8], %"class.std::shared_ptr", i32, [4 x i8] }>
%"class.OpenColorIO_v2_5dev::OpData" = type { ptr, %"class.std::mutex", %"class.OpenColorIO_v2_5dev::FormatMetadataImpl" }
%"class.std::mutex" = type { %"class.std::__mutex_base" }
%"class.std::__mutex_base" = type { %union.pthread_mutex_t }
%union.pthread_mutex_t = type { %struct.__pthread_mutex_s }
%struct.__pthread_mutex_s = type { i32, i32, i32, i32, i32, i16, i16, %struct.__pthread_internal_list }
%struct.__pthread_internal_list = type { ptr, ptr }
%"class.OpenColorIO_v2_5dev::FormatMetadataImpl" = type { %"class.OpenColorIO_v2_5dev::FormatMetadata", %"class.std::__cxx11::basic_string", %"class.std::__cxx11::basic_string", %"class.std::vector", %"class.std::vector.3" }
%"class.OpenColorIO_v2_5dev::FormatMetadata" = type { ptr }
%"class.std::__cxx11::basic_string" = type { %"struct.std::__cxx11::basic_string<char>::_Alloc_hider", i64, %union.anon }
%"struct.std::__cxx11::basic_string<char>::_Alloc_hider" = type { ptr }
%union.anon = type { i64, [8 x i8] }
%"class.std::vector" = type { %"struct.std::_Vector_base" }
%"struct.std::_Vector_base" = type { %"struct.std::_Vector_base<std::pair<std::__cxx11::basic_string<char>, std::__cxx11::basic_string<char>>, std::allocator<std::pair<std::__cxx11::basic_string<char>, std::__cxx11::basic_string<char>>>>::_Vector_impl" }
%"struct.std::_Vector_base<std::pair<std::__cxx11::basic_string<char>, std::__cxx11::basic_string<char>>, std::allocator<std::pair<std::__cxx11::basic_string<char>, std::__cxx11::basic_string<char>>>>::_Vector_impl" = type { %"struct.std::_Vector_base<std::pair<std::__cxx11::basic_string<char>, std::__cxx11::basic_string<char>>, std::allocator<std::pair<std::__cxx11::basic_string<char>, std::__cxx11::basic_string<char>>>>::_Vector_impl_data" }
%"struct.std::_Vector_base<std::pair<std::__cxx11::basic_string<char>, std::__cxx11::basic_string<char>>, std::allocator<std::pair<std::__cxx11::basic_string<char>, std::__cxx11::basic_string<char>>>>::_Vector_impl_data" = type { ptr, ptr, ptr }
%"class.std::vector.3" = type { %"struct.std::_Vector_base.4" }
%"struct.std::_Vector_base.4" = type { %"struct.std::_Vector_base<OpenColorIO_v2_5dev::FormatMetadataImpl, std::allocator<OpenColorIO_v2_5dev::FormatMetadataImpl>>::_Vector_impl" }
%"struct.std::_Vector_base<OpenColorIO_v2_5dev::FormatMetadataImpl, std::allocator<OpenColorIO_v2_5dev::FormatMetadataImpl>>::_Vector_impl" = type { %"struct.std::_Vector_base<OpenColorIO_v2_5dev::FormatMetadataImpl, std::allocator<OpenColorIO_v2_5dev::FormatMetadataImpl>>::_Vector_impl_data" }
%"struct.std::_Vector_base<OpenColorIO_v2_5dev::FormatMetadataImpl, std::allocator<OpenColorIO_v2_5dev::FormatMetadataImpl>>::_Vector_impl_data" = type { ptr, ptr, ptr }
%"class.std::shared_ptr" = type { %"class.std::__shared_ptr" }
%"class.std::__shared_ptr" = type { ptr, %"class.std::__shared_count" }
%"class.std::__shared_count" = type { ptr }
%"class.OpenColorIO_v2_5dev::DynamicPropertyImpl" = type <{ %"class.OpenColorIO_v2_5dev::DynamicProperty", i32, i8, [3 x i8] }>
%"class.OpenColorIO_v2_5dev::DynamicProperty" = type { ptr }

; Function Attrs: mustprogress nounwind uwtable
define linkonce_odr hidden noundef ptr @_ZNKSt12__shared_ptrIN19OpenColorIO_v2_5dev30DynamicPropertyGradingToneImplELN9__gnu_cxx12_Lock_policyE2EE3getEv(ptr noundef nonnull align 8 dereferenceable(16) %0) #7 comdat align 2 {
  %2 = alloca ptr, align 8
  store ptr %0, ptr %2, align 8, !tbaa !55
  %3 = load ptr, ptr %2, align 8
  %4 = getelementptr inbounds nuw %"class.std::__shared_ptr", ptr %3, i32 0, i32 0
  %5 = load ptr, ptr %4, align 8, !tbaa !130
  ret ptr %5
}

; Function Attrs: mustprogress nounwind uwtable
define linkonce_odr hidden noundef ptr @_ZNKSt19__shared_ptr_accessIN19OpenColorIO_v2_5dev30DynamicPropertyGradingToneImplELN9__gnu_cxx12_Lock_policyE2ELb0ELb0EE6_M_getEv(ptr noundef nonnull align 1 dereferenceable(1) %0) #7 comdat align 2 {
  %2 = alloca ptr, align 8
  store ptr %0, ptr %2, align 8, !tbaa !57
  %3 = load ptr, ptr %2, align 8
  %4 = call noundef ptr @_ZNKSt12__shared_ptrIN19OpenColorIO_v2_5dev30DynamicPropertyGradingToneImplELN9__gnu_cxx12_Lock_policyE2EE3getEv(ptr noundef nonnull align 8 dereferenceable(16) %3) #3
  ret ptr %4
}

; Function Attrs: mustprogress nounwind uwtable
define linkonce_odr hidden noundef zeroext i1 @_ZNK19OpenColorIO_v2_5dev19DynamicPropertyImpl9isDynamicEv(ptr noundef nonnull align 8 dereferenceable(13) %0) #7 comdat align 2 {
  %2 = alloca ptr, align 8
  store ptr %0, ptr %2, align 8, !tbaa !59
  %3 = load ptr, ptr %2, align 8
  %4 = getelementptr inbounds nuw %"class.OpenColorIO_v2_5dev::DynamicPropertyImpl", ptr %3, i32 0, i32 2
  %5 = load i8, ptr %4, align 4, !tbaa !61, !range !65, !noundef !66
  %6 = trunc i8 %5 to i1
  ret i1 %6
}

; Function Attrs: mustprogress nounwind uwtable
define linkonce_odr hidden noundef ptr @_ZNKSt19__shared_ptr_accessIN19OpenColorIO_v2_5dev30DynamicPropertyGradingToneImplELN9__gnu_cxx12_Lock_policyE2ELb0ELb0EEptEv(ptr noundef nonnull align 1 dereferenceable(1) %0) #7 comdat align 2 {
  %2 = alloca ptr, align 8
  store ptr %0, ptr %2, align 8, !tbaa !57
  %3 = load ptr, ptr %2, align 8
  %4 = call noundef ptr @_ZNKSt19__shared_ptr_accessIN19OpenColorIO_v2_5dev30DynamicPropertyGradingToneImplELN9__gnu_cxx12_Lock_policyE2ELb0ELb0EE6_M_getEv(ptr noundef nonnull align 1 dereferenceable(1) %3) #3
  ret ptr %4
}

; Function Attrs: mustprogress nounwind uwtable
define hidden noundef zeroext i1 @_ZNK19OpenColorIO_v2_5dev17GradingToneOpData9isDynamicEv(ptr noundef nonnull align 8 dereferenceable(196) %0) #7 align 2 {
  %2 = alloca ptr, align 8
  store ptr %0, ptr %2, align 8, !tbaa !3
  %3 = load ptr, ptr %2, align 8
  %4 = getelementptr inbounds nuw %"class.OpenColorIO_v2_5dev::GradingToneOpData", ptr %3, i32 0, i32 3
  %5 = call noundef ptr @_ZNKSt19__shared_ptr_accessIN19OpenColorIO_v2_5dev30DynamicPropertyGradingToneImplELN9__gnu_cxx12_Lock_policyE2ELb0ELb0EEptEv(ptr noundef nonnull align 1 dereferenceable(1) %4) #3
  %6 = call noundef zeroext i1 @_ZNK19OpenColorIO_v2_5dev19DynamicPropertyImpl9isDynamicEv(ptr noundef nonnull align 8 dereferenceable(13) %5) #3
  ret i1 %6
}

; Function Attrs: mustprogress uwtable
define hidden noundef zeroext i1 @_ZNK19OpenColorIO_v2_5dev17GradingToneOpData10isIdentityEv(ptr noundef nonnull align 8 dereferenceable(196) %0) unnamed_addr #4 align 2 {
  %2 = alloca i1, align 1
  %3 = alloca ptr, align 8
  %4 = alloca ptr, align 8
  store ptr %0, ptr %3, align 8, !tbaa !3
  %5 = load ptr, ptr %3, align 8
  %6 = call noundef zeroext i1 @_ZNK19OpenColorIO_v2_5dev17GradingToneOpData9isDynamicEv(ptr noundef nonnull align 8 dereferenceable(196) %5) #3
  br i1 %6, label %7, label %8

7:                                                ; preds = %1
  store i1 false, ptr %2, align 1
  br label %17

8:                                                ; preds = %1
  call void @llvm.lifetime.start.p0(i64 8, ptr %4) #3
  %9 = getelementptr inbounds nuw %"class.OpenColorIO_v2_5dev::GradingToneOpData", ptr %5, i32 0, i32 3
  %10 = call noundef ptr @_ZNKSt19__shared_ptr_accessIN19OpenColorIO_v2_5dev30DynamicPropertyGradingToneImplELN9__gnu_cxx12_Lock_policyE2ELb0ELb0EEptEv(ptr noundef nonnull align 1 dereferenceable(1) %9) #3
  %11 = load ptr, ptr %10, align 8, !tbaa !10
  %12 = getelementptr inbounds ptr, ptr %11, i64 3
  %13 = load ptr, ptr %12, align 8
  %14 = call noundef nonnull align 8 dereferenceable(248) ptr %13(ptr noundef nonnull align 8 dereferenceable(1208) %10)
  store ptr %14, ptr %4, align 8, !tbaa !42
  %15 = load ptr, ptr %4, align 8, !tbaa !42
  %16 = call noundef zeroext i1 @_ZN19OpenColorIO_v2_5dev10IsIdentityERKNS_11GradingToneE(ptr noundef nonnull align 8 dereferenceable(248) %15)
  store i1 %16, ptr %2, align 1
  call void @llvm.lifetime.end.p0(i64 8, ptr %4) #3
  br label %17

17:                                               ; preds = %8, %7
  %18 = load i1, ptr %2, align 1
  ret i1 %18
}