; Function Attrs: mustprogress uwtable
define hidden noundef zeroext i1 @_ZNK19OpenColorIO_v2_5dev17GradingToneOpData10isIdentityEv(ptr noundef nonnull readonly align 8 captures(none) dereferenceable(196) %0) unnamed_addr #3 align 2 {
  %2 = getelementptr inbounds nuw i8, ptr %0, i64 176
  %3 = load ptr, ptr %2, align 8, !tbaa !49
  %4 = getelementptr inbounds nuw i8, ptr %3, i64 12
  %5 = load i8, ptr %4, align 4, !tbaa !60, !range !65, !noundef !66
  %6 = trunc nuw i8 %5 to i1
  br i1 %6, label %13, label %7

7:                                                ; preds = %1
  %8 = load ptr, ptr %3, align 8, !tbaa !3
  %9 = getelementptr inbounds nuw i8, ptr %8, i64 24
  %10 = load ptr, ptr %9, align 8
  %11 = tail call noundef nonnull align 8 dereferenceable(248) ptr %10(ptr noundef nonnull align 8 dereferenceable(1208) %3)
  %12 = tail call noundef zeroext i1 @_ZN19OpenColorIO_v2_5dev10IsIdentityERKNS_11GradingToneE(ptr noundef nonnull align 8 dereferenceable(248) %11)
  br label %13

13:                                               ; preds = %1, %7
  %.0 = phi i1 [ %12, %7 ], [ false, %1 ]
  ret i1 %.0
}